target datalayout = "e-m:e-p270:32:32-p271:32:32-p272:64:64-i64:64-i128:128-f80:128-n8:16:32:64-S128"
target triple = "x86_64-pc-linux-gnu"

%struct.ePICPixHash = type { [256 x ptr], [256 x i32], [256 x i32] }
%struct.ePICPixHashElem = type { i32, ptr }
%struct.ePICPixListElem = type { ptr, i32, i8 }

; Function Attrs: nounwind uwtable
define internal void @epic_free_pixel_cache(ptr noundef %0) #1 {
  %2 = alloca ptr, align 8
  %3 = alloca i32, align 4
  %4 = alloca i32, align 4
  %5 = alloca ptr, align 8
  %6 = alloca ptr, align 8
  store ptr %0, ptr %2, align 8, !tbaa !137
  call void @llvm.lifetime.start.p0(i64 4, ptr %3) #12
  call void @llvm.lifetime.start.p0(i64 4, ptr %4) #12
  store i32 0, ptr %3, align 4, !tbaa !31
  br label %7

7:                                                ; preds = %61, %1
  %8 = load i32, ptr %3, align 4, !tbaa !31
  %9 = icmp slt i32 %8, 256
  br i1 %9, label %10, label %64

10:                                               ; preds = %7
  store i32 0, ptr %4, align 4, !tbaa !31
  br label %11

11:                                               ; preds = %42, %10
  %12 = load i32, ptr %4, align 4, !tbaa !31
  %13 = load ptr, ptr %2, align 8, !tbaa !137
  %14 = getelementptr inbounds nuw %struct.ePICPixHash, ptr %13, i32 0, i32 2
  %15 = load i32, ptr %3, align 4, !tbaa !31
  %16 = sext i32 %15 to i64
  %17 = getelementptr inbounds [256 x i32], ptr %14, i64 0, i64 %16
  %18 = load i32, ptr %17, align 4, !tbaa !31
  %19 = icmp slt i32 %12, %18
  br i1 %19, label %20, label %45

20:                                               ; preds = %11
  call void @llvm.lifetime.start.p0(i64 8, ptr %5) #12
  %21 = load ptr, ptr %2, align 8, !tbaa !137
  %22 = getelementptr inbounds nuw %struct.ePICPixHash, ptr %21, i32 0, i32 0
  %23 = load i32, ptr %3, align 4, !tbaa !31
  %24 = sext i32 %23 to i64
  %25 = getelementptr inbounds [256 x ptr], ptr %22, i64 0, i64 %24
  %26 = load ptr, ptr %25, align 8, !tbaa !147
  %27 = load i32, ptr %4, align 4, !tbaa !31
  %28 = sext i32 %27 to i64
  %29 = getelementptr inbounds %struct.ePICPixHashElem, ptr %26, i64 %28
  %30 = getelementptr inbounds nuw %struct.ePICPixHashElem, ptr %29, i32 0, i32 1
  %31 = load ptr, ptr %30, align 8, !tbaa !149
  store ptr %31, ptr %5, align 8, !tbaa !152
  br label %32

32:                                               ; preds = %35, %20
  %33 = load ptr, ptr %5, align 8, !tbaa !152
  %34 = icmp ne ptr %33, null
  br i1 %34, label %35, label %41

35:                                               ; preds = %32
  call void @llvm.lifetime.start.p0(i64 8, ptr %6) #12
  %36 = load ptr, ptr %5, align 8, !tbaa !152
  %37 = getelementptr inbounds nuw %struct.ePICPixListElem, ptr %36, i32 0, i32 0
  %38 = load ptr, ptr %37, align 8, !tbaa !153
  store ptr %38, ptr %6, align 8, !tbaa !152
  %39 = load ptr, ptr %5, align 8, !tbaa !152
  call void @av_free(ptr noundef %39)
  %40 = load ptr, ptr %6, align 8, !tbaa !152
  store ptr %40, ptr %5, align 8, !tbaa !152
  call void @llvm.lifetime.end.p0(i64 8, ptr %6) #12
  br label %32, !llvm.loop !155

41:                                               ; preds = %32
  call void @llvm.lifetime.end.p0(i64 8, ptr %5) #12
  br label %42

42:                                               ; preds = %41
  %43 = load i32, ptr %4, align 4, !tbaa !31
  %44 = add nsw i32 %43, 1
  store i32 %44, ptr %4, align 4, !tbaa !31
  br label %11, !llvm.loop !156

45:                                               ; preds = %11
  %46 = load ptr, ptr %2, align 8, !tbaa !137
  %47 = getelementptr inbounds nuw %struct.ePICPixHash, ptr %46, i32 0, i32 0
  %48 = load i32, ptr %3, align 4, !tbaa !31
  %49 = sext i32 %48 to i64
  %50 = getelementptr inbounds [256 x ptr], ptr %47, i64 0, i64 %49
  call void @av_freep(ptr noundef %50)
  %51 = load ptr, ptr %2, align 8, !tbaa !137
  %52 = getelementptr inbounds nuw %struct.ePICPixHash, ptr %51, i32 0, i32 2
  %53 = load i32, ptr %3, align 4, !tbaa !31
  %54 = sext i32 %53 to i64
  %55 = getelementptr inbounds [256 x i32], ptr %52, i64 0, i64 %54
  store i32 0, ptr %55, align 4, !tbaa !31
  %56 = load ptr, ptr %2, align 8, !tbaa !137
  %57 = getelementptr inbounds nuw %struct.ePICPixHash, ptr %56, i32 0, i32 1
  %58 = load i32, ptr %3, align 4, !tbaa !31
  %59 = sext i32 %58 to i64
  %60 = getelementptr inbounds [256 x i32], ptr %57, i64 0, i64 %59
  store i32 0, ptr %60, align 4, !tbaa !31
  br label %61

61:                                               ; preds = %45
  %62 = load i32, ptr %3, align 4, !tbaa !31
  %63 = add nsw i32 %62, 1
  store i32 %63, ptr %3, align 4, !tbaa !31
  br label %7, !llvm.loop !157

64:                                               ; preds = %7
  call void @llvm.lifetime.end.p0(i64 4, ptr %4) #12
  call void @llvm.lifetime.end.p0(i64 4, ptr %3) #12
  ret void
}