; Function Attrs: nounwind uwtable
define internal fastcc void @epic_free_pixel_cache(ptr noundef %0) unnamed_addr #1 {
  %2 = getelementptr inbounds nuw i8, ptr %0, i64 3072
  %3 = getelementptr inbounds nuw i8, ptr %0, i64 2048
  br label %.preheader

.preheader:                                       ; preds = %1, %._crit_edge27
  %indvars.iv32 = phi i64 [ 0, %1 ], [ %indvars.iv.next33, %._crit_edge27 ]
  %4 = getelementptr inbounds nuw [256 x i32], ptr %2, i64 0, i64 %indvars.iv32
  %5 = load i32, ptr %4, align 4, !tbaa !98
  %6 = icmp sgt i32 %5, 0
  br i1 %6, label %.lr.ph26, label %._crit_edge27

.lr.ph26:                                         ; preds = %.preheader
  %7 = getelementptr inbounds nuw [256 x ptr], ptr %0, i64 0, i64 %indvars.iv32
  br label %8

8:                                                ; preds = %.lr.ph26, %._crit_edge
  %9 = phi i32 [ %5, %.lr.ph26 ], [ %14, %._crit_edge ]
  %indvars.iv = phi i64 [ 0, %.lr.ph26 ], [ %indvars.iv.next, %._crit_edge ]
  %10 = load ptr, ptr %7, align 8, !tbaa !122
  %11 = getelementptr inbounds nuw %struct.ePICPixHashElem, ptr %10, i64 %indvars.iv, i32 1
  %12 = load ptr, ptr %11, align 8, !tbaa !128
  %.not21 = icmp eq ptr %12, null
  br i1 %.not21, label %._crit_edge, label %.lr.ph

.lr.ph:                                           ; preds = %8, %.lr.ph
  %.01822 = phi ptr [ %13, %.lr.ph ], [ %12, %8 ]
  %13 = load ptr, ptr %.01822, align 8, !tbaa !136
  tail call void @av_free(ptr noundef nonnull %.01822) #12
  %.not = icmp eq ptr %13, null
  br i1 %.not, label %._crit_edge.loopexit, label %.lr.ph, !llvm.loop !141

._crit_edge.loopexit:                             ; preds = %.lr.ph
  %.pre = load i32, ptr %4, align 4, !tbaa !98
  br label %._crit_edge

._crit_edge:                                      ; preds = %._crit_edge.loopexit, %8
  %14 = phi i32 [ %.pre, %._crit_edge.loopexit ], [ %9, %8 ]
  %indvars.iv.next = add nuw nsw i64 %indvars.iv, 1
  %15 = sext i32 %14 to i64
  %16 = icmp slt i64 %indvars.iv.next, %15
  br i1 %16, label %8, label %._crit_edge27, !llvm.loop !142

._crit_edge27:                                    ; preds = %._crit_edge, %.preheader
  %17 = getelementptr inbounds nuw [256 x ptr], ptr %0, i64 0, i64 %indvars.iv32
  tail call void @av_freep(ptr noundef %17) #12
  store i32 0, ptr %4, align 4, !tbaa !98
  %18 = getelementptr inbounds nuw [256 x i32], ptr %3, i64 0, i64 %indvars.iv32
  store i32 0, ptr %18, align 4, !tbaa !98
  %indvars.iv.next33 = add nuw nsw i64 %indvars.iv32, 1
  %exitcond.not = icmp eq i64 %indvars.iv.next33, 256
  br i1 %exitcond.not, label %19, label %.preheader, !llvm.loop !143

19:                                               ; preds = %._crit_edge27
  ret void
}